; Function Attrs: mustprogress uwtable
define void @_ZN18OpenImageIO_v2_6_010ImageInput6createERKNSt7__cxx1112basic_stringIcSt11char_traitsIcESaIcEEEbPKNS_9ImageSpecENS_17basic_string_viewIcS4_EE(ptr noalias nocapture writeonly sret(%"class.std::unique_ptr") align 8 %agg.result, ptr noundef nonnull align 8 dereferenceable(32) %filename, i1 noundef zeroext %do_open, ptr noundef %config, ptr nocapture noundef readonly %plugin_searchpath) local_unnamed_addr #5 align 2 {
entry:
  %agg.tmp = alloca %"class.OpenImageIO_v2_6_0::basic_string_view", align 8
  %agg.tmp1 = alloca %"class.OpenImageIO_v2_6_0::basic_string_view", align 8
  %call.i = tail call noundef ptr @_ZNKSt7__cxx1112basic_stringIcSt11char_traitsIcESaIcEE4dataEv(ptr noundef nonnull align 8 dereferenceable(32) %filename) #23
  store ptr %call.i, ptr %agg.tmp, align 8
  %m_len.i = getelementptr inbounds i8, ptr %agg.tmp, i64 8
  %call2.i = tail call noundef i64 @_ZNKSt7__cxx1112basic_stringIcSt11char_traitsIcESaIcEE4sizeEv(ptr noundef nonnull align 8 dereferenceable(32) %filename) #23
  store i64 %call2.i, ptr %m_len.i, align 8
  %0 = load ptr, ptr %plugin_searchpath, align 8
  store ptr %0, ptr %agg.tmp1, align 8
  %m_len.i1 = getelementptr inbounds i8, ptr %agg.tmp1, i64 8
  %m_len.i.i = getelementptr inbounds i8, ptr %plugin_searchpath, i64 8
  %1 = load i64, ptr %m_len.i.i, align 8
  store i64 %1, ptr %m_len.i1, align 8
  call void @_ZN18OpenImageIO_v2_6_010ImageInput6createENS_17basic_string_viewIcSt11char_traitsIcEEEbPKNS_9ImageSpecEPNS_10Filesystem7IOProxyES4_(ptr sret(%"class.std::unique_ptr") align 8 %agg.result, ptr noundef nonnull %agg.tmp, i1 noundef zeroext %do_open, ptr noundef %config, ptr noundef null, ptr noundef nonnull %agg.tmp1)
  ret void
}